target datalayout = "e-m:e-p270:32:32-p271:32:32-p272:64:64-i64:64-i128:128-f80:128-n8:16:32:64-S128"
target triple = "x86_64-pc-linux-gnu"

%class.QString = type { %struct.QArrayDataPointer }
%struct.QArrayDataPointer = type { ptr, ptr, i64 }
%class.WlanStatisticsDialog = type { %class.TapParameterDialog, i32, i32, ptr, ptr, ptr, %class.QString }
%class.TapParameterDialog = type { %class.WiresharkDialog.base, ptr, %class.QMenu, %class.QList.1, i32, ptr }
%class.WiresharkDialog.base = type <{ %class.GeometryStateDialog, ptr, i8, [7 x i8], %class.QString, %class.QList, i32, i8 }>
%class.GeometryStateDialog = type { %class.QDialog, %class.QString, ptr }
%class.QDialog = type { %class.QWidget }
%class.QWidget = type { %class.QObject, %class.QPaintDevice.base, ptr }
%class.QObject = type { ptr, %class.QScopedPointer }
%class.QScopedPointer = type { ptr }
%class.QPaintDevice.base = type <{ ptr, i16 }>
%class.QList = type { %struct.QArrayDataPointer.0 }
%struct.QArrayDataPointer.0 = type { ptr, ptr, i64 }
%class.QMenu = type { %class.QWidget }
%class.QList.1 = type { %struct.QArrayDataPointer.4 }
%struct.QArrayDataPointer.4 = type { ptr, ptr, i64 }
%class.QList.13 = type { %struct.QArrayDataPointer.16 }
%struct.QArrayDataPointer.16 = type { ptr, ptr, i64 }
%class.QTreeWidgetItem = type <{ ptr, i32, [4 x i8], %class.QList.9, ptr, ptr, ptr, %class.QList.13, %class.QFlags, [4 x i8] }>
%class.QList.9 = type { %struct.QArrayDataPointer.12 }
%struct.QArrayDataPointer.12 = type { ptr, ptr, i64 }
%class.QFlags = type { i32 }

@.str.33 = private unnamed_addr constant [23 x i8] c"1addStationTreeItems()\00", align 1

; Function Attrs: inlinehint mustprogress nounwind null_pointer_is_valid sspstrong uwtable
define linkonce_odr noundef i32 @_ZNK15QTreeWidgetItem4typeEv(ptr noundef align 8 dereferenceable_or_null(92) %0) #2 comdat align 2 {
  %2 = alloca ptr, align 8
  store ptr %0, ptr %2, align 8
  %3 = load ptr, ptr %2, align 8
  %4 = getelementptr inbounds nuw %class.QTreeWidgetItem, ptr %3, i32 0, i32 1
  %5 = load i32, ptr %4, align 8
  ret i32 %5
}

; Function Attrs: mustprogress null_pointer_is_valid sspstrong uwtable
define void @_ZN20WlanStatisticsDialog19addStationTreeItemsEv(ptr noundef align 8 dereferenceable_or_null(288) %0) #4 align 2 {
  %2 = alloca ptr, align 8
  %3 = alloca ptr, align 8
  %4 = alloca i32, align 4
  %5 = alloca ptr, align 8
  store ptr %0, ptr %2, align 8
  %6 = load ptr, ptr %2, align 8
  %7 = getelementptr inbounds nuw %class.WlanStatisticsDialog, ptr %6, i32 0, i32 5
  %8 = load ptr, ptr %7, align 8
  call void @_ZN13QElapsedTimer5startEv(ptr noundef align 8 dereferenceable_or_null(16) %8) #3
  br label %9

9:                                                ; preds = %39, %37, %1
  %10 = getelementptr inbounds nuw %class.WlanStatisticsDialog, ptr %6, i32 0, i32 5
  %11 = load ptr, ptr %10, align 8
  %12 = call noundef i64 @_ZNK13QElapsedTimer7elapsedEv(ptr noundef align 8 dereferenceable_or_null(16) %11) #3
  %13 = icmp slt i64 %12, 5
  br i1 %13, label %14, label %20

14:                                               ; preds = %9
  %15 = getelementptr inbounds nuw %class.WlanStatisticsDialog, ptr %6, i32 0, i32 2
  %16 = load i32, ptr %15, align 4
  %17 = call noundef ptr @_ZN18TapParameterDialog15statsTreeWidgetEv(ptr noundef align 8 dereferenceable_or_null(232) %6)
  %18 = call noundef i32 @_ZNK11QTreeWidget17topLevelItemCountEv(ptr noundef align 8 dereferenceable_or_null(40) %17)
  %19 = icmp slt i32 %16, %18
  br label %20

20:                                               ; preds = %14, %9
  %21 = phi i1 [ false, %9 ], [ %19, %14 ]
  br i1 %21, label %22, label %40

22:                                               ; preds = %20
  call void @llvm.lifetime.start.p0(i64 8, ptr %3) #3
  %23 = call noundef ptr @_ZN18TapParameterDialog15statsTreeWidgetEv(ptr noundef align 8 dereferenceable_or_null(232) %6)
  %24 = getelementptr inbounds nuw %class.WlanStatisticsDialog, ptr %6, i32 0, i32 2
  %25 = load i32, ptr %24, align 4
  %26 = call noundef ptr @_ZNK11QTreeWidget12topLevelItemEi(ptr noundef align 8 dereferenceable_or_null(40) %23, i32 noundef %25)
  store ptr %26, ptr %3, align 8
  %27 = load ptr, ptr %3, align 8
  %28 = call noundef i32 @_ZNK15QTreeWidgetItem4typeEv(ptr noundef align 8 dereferenceable_or_null(92) %27)
  %29 = icmp ne i32 %28, 1000
  br i1 %29, label %30, label %31

30:                                               ; preds = %22
  store i32 2, ptr %4, align 4
  br label %37, !llvm.loop !14

31:                                               ; preds = %22
  call void @llvm.lifetime.start.p0(i64 8, ptr %5) #3
  %32 = load ptr, ptr %3, align 8
  store ptr %32, ptr %5, align 8
  %33 = load ptr, ptr %5, align 8
  call void @_ZN25WlanNetworkTreeWidgetItem11addStationsEv(ptr noundef align 8 dereferenceable_or_null(216) %33)
  %34 = getelementptr inbounds nuw %class.WlanStatisticsDialog, ptr %6, i32 0, i32 2
  %35 = load i32, ptr %34, align 4
  %36 = add i32 %35, 1
  store i32 %36, ptr %34, align 4
  call void @llvm.lifetime.end.p0(i64 8, ptr %5) #3
  store i32 0, ptr %4, align 4
  br label %37

37:                                               ; preds = %31, %30
  call void @llvm.lifetime.end.p0(i64 8, ptr %3) #3
  %38 = load i32, ptr %4, align 4
  switch i32 %38, label %48 [
    i32 0, label %39
    i32 2, label %9
  ]

39:                                               ; preds = %37
  br label %9, !llvm.loop !14

40:                                               ; preds = %20
  %41 = getelementptr inbounds nuw %class.WlanStatisticsDialog, ptr %6, i32 0, i32 2
  %42 = load i32, ptr %41, align 4
  %43 = call noundef ptr @_ZN18TapParameterDialog15statsTreeWidgetEv(ptr noundef align 8 dereferenceable_or_null(232) %6)
  %44 = call noundef i32 @_ZNK11QTreeWidget17topLevelItemCountEv(ptr noundef align 8 dereferenceable_or_null(40) %43)
  %45 = icmp slt i32 %42, %44
  br i1 %45, label %46, label %47

46:                                               ; preds = %40
  call void @_ZN6QTimer10singleShotEiPK7QObjectPKc(i32 noundef 0, ptr noundef %6, ptr noundef @.str.33)
  br label %47

47:                                               ; preds = %46, %40
  ret void

48:                                               ; preds = %37
  unreachable
}