; Function Attrs: mustprogress null_pointer_is_valid sspstrong uwtable
define void @_ZN20WlanStatisticsDialog19addStationTreeItemsEv(ptr noundef align 8 dereferenceable_or_null(288) %0) local_unnamed_addr #2 align 2 {
  %2 = getelementptr inbounds nuw i8, ptr %0, i64 256
  %3 = load ptr, ptr %2, align 8
  tail call void @_ZN13QElapsedTimer5startEv(ptr noundef align 8 dereferenceable_or_null(16) %3) #26
  %4 = getelementptr inbounds nuw i8, ptr %0, i64 236
  %5 = load ptr, ptr %2, align 8
  %6 = tail call noundef i64 @_ZNK13QElapsedTimer7elapsedEv(ptr noundef align 8 dereferenceable_or_null(16) %5) #26
  %7 = icmp slt i64 %6, 5
  br i1 %7, label %.lr.ph, label %.critedge

.lr.ph:                                           ; preds = %1, %21
  %8 = load i32, ptr %4, align 4
  %9 = tail call noundef ptr @_ZN18TapParameterDialog15statsTreeWidgetEv(ptr noundef align 8 dereferenceable_or_null(232) %0)
  %10 = tail call noundef i32 @_ZNK11QTreeWidget17topLevelItemCountEv(ptr noundef align 8 dereferenceable_or_null(40) %9)
  %11 = icmp slt i32 %8, %10
  br i1 %11, label %12, label %.critedge

12:                                               ; preds = %.lr.ph
  %13 = tail call noundef ptr @_ZN18TapParameterDialog15statsTreeWidgetEv(ptr noundef align 8 dereferenceable_or_null(232) %0)
  %14 = load i32, ptr %4, align 4
  %15 = tail call noundef ptr @_ZNK11QTreeWidget12topLevelItemEi(ptr noundef align 8 dereferenceable_or_null(40) %13, i32 noundef %14)
  %16 = getelementptr inbounds nuw i8, ptr %15, i64 8
  %17 = load i32, ptr %16, align 8
  %.not = icmp eq i32 %17, 1000
  br i1 %.not, label %18, label %21, !llvm.loop !27

18:                                               ; preds = %12
  tail call void @_ZN25WlanNetworkTreeWidgetItem11addStationsEv(ptr noundef align 8 dereferenceable_or_null(216) %15)
  %19 = load i32, ptr %4, align 4
  %20 = add i32 %19, 1
  store i32 %20, ptr %4, align 4
  br label %21

21:                                               ; preds = %12, %18
  %22 = load ptr, ptr %2, align 8
  %23 = tail call noundef i64 @_ZNK13QElapsedTimer7elapsedEv(ptr noundef align 8 dereferenceable_or_null(16) %22) #26
  %24 = icmp slt i64 %23, 5
  br i1 %24, label %.lr.ph, label %.critedge

.critedge:                                        ; preds = %.lr.ph, %21, %1
  %25 = load i32, ptr %4, align 4
  %26 = tail call noundef ptr @_ZN18TapParameterDialog15statsTreeWidgetEv(ptr noundef align 8 dereferenceable_or_null(232) %0)
  %27 = tail call noundef i32 @_ZNK11QTreeWidget17topLevelItemCountEv(ptr noundef align 8 dereferenceable_or_null(40) %26)
  %28 = icmp slt i32 %25, %27
  br i1 %28, label %29, label %30

29:                                               ; preds = %.critedge
  tail call void @_ZN6QTimer10singleShotEiPK7QObjectPKc(i32 noundef 0, ptr noundef %0, ptr noundef nonnull @.str.33)
  br label %30

30:                                               ; preds = %29, %.critedge
  ret void
}